(dp0
I0
(dp1
S'epsilon'
p2
F0.4
sS'gamma'
p3
F0.3
sS'alpha'
p4
F0.5
ssI1
(dp5
g2
F0.4
sg3
F0.4
sg4
F0.5
ssI2
(dp6
g2
F0.4
sg3
F0.5
sg4
F0.5
ssI3
(dp7
g2
F0.4
sg3
F0.6
sg4
F0.5
ssI4
(dp8
g2
F0.4
sg3
F0.7
sg4
F0.5
ssI5
(dp9
g2
F0.4
sg3
F0.8
sg4
F0.5
ssI6
(dp10
g2
F0.4
sg3
F0.9
sg4
F0.5
ssI7
(dp11
g2
F0.4
sg3
I1
sg4
F0.5
ssI8
(dp12
g2
F0.4
sg3
F0.3
sg4
F0.6
ssI9
(dp13
g2
F0.4
sg3
F0.4
sg4
F0.6
ssI10
(dp14
g2
F0.4
sg3
F0.5
sg4
F0.6
ssI11
(dp15
g2
F0.4
sg3
F0.6
sg4
F0.6
ssI12
(dp16
g2
F0.4
sg3
F0.7
sg4
F0.6
ssI13
(dp17
g2
F0.4
sg3
F0.8
sg4
F0.6
ssI14
(dp18
g2
F0.4
sg3
F0.9
sg4
F0.6
ssI15
(dp19
g2
F0.4
sg3
I1
sg4
F0.6
ssI16
(dp20
g2
F0.4
sg3
F0.3
sg4
F0.7
ssI17
(dp21
g2
F0.4
sg3
F0.4
sg4
F0.7
ssI18
(dp22
g2
F0.4
sg3
F0.5
sg4
F0.7
ssI19
(dp23
g2
F0.4
sg3
F0.6
sg4
F0.7
ssI20
(dp24
g2
F0.4
sg3
F0.7
sg4
F0.7
ssI21
(dp25
g2
F0.4
sg3
F0.8
sg4
F0.7
ssI22
(dp26
g2
F0.4
sg3
F0.9
sg4
F0.7
ssI23
(dp27
g2
F0.4
sg3
I1
sg4
F0.7
ssI24
(dp28
g2
F0.4
sg3
F0.3
sg4
F0.8
ssI25
(dp29
g2
F0.4
sg3
F0.4
sg4
F0.8
ssI26
(dp30
g2
F0.4
sg3
F0.5
sg4
F0.8
ssI27
(dp31
g2
F0.4
sg3
F0.6
sg4
F0.8
ssI28
(dp32
g2
F0.4
sg3
F0.7
sg4
F0.8
ssI29
(dp33
g2
F0.4
sg3
F0.8
sg4
F0.8
ssI30
(dp34
g2
F0.4
sg3
F0.9
sg4
F0.8
ssI31
(dp35
g2
F0.4
sg3
I1
sg4
F0.8
ssI32
(dp36
g2
F0.4
sg3
F0.3
sg4
F0.9
ssI33
(dp37
g2
F0.4
sg3
F0.4
sg4
F0.9
ssI34
(dp38
g2
F0.4
sg3
F0.5
sg4
F0.9
ssI35
(dp39
g2
F0.4
sg3
F0.6
sg4
F0.9
ssI36
(dp40
g2
F0.4
sg3
F0.7
sg4
F0.9
ssI37
(dp41
g2
F0.4
sg3
F0.8
sg4
F0.9
ssI38
(dp42
g2
F0.4
sg3
F0.9
sg4
F0.9
ssI39
(dp43
g2
F0.4
sg3
I1
sg4
F0.9
ssI40
(dp44
g2
F0.4
sg3
F0.3
sg4
I1
ssI41
(dp45
g2
F0.4
sg3
F0.4
sg4
I1
ssI42
(dp46
g2
F0.4
sg3
F0.5
sg4
I1
ssI43
(dp47
g2
F0.4
sg3
F0.6
sg4
I1
ssI44
(dp48
g2
F0.4
sg3
F0.7
sg4
I1
ssI45
(dp49
g2
F0.4
sg3
F0.8
sg4
I1
ssI46
(dp50
g2
F0.4
sg3
F0.9
sg4
I1
ssI47
(dp51
g2
F0.4
sg3
I1
sg4
I1
ssI48
(dp52
g2
F0.2
sg3
F0.3
sg4
F0.5
ssI49
(dp53
g2
F0.2
sg3
F0.4
sg4
F0.5
ssI50
(dp54
g2
F0.2
sg3
F0.5
sg4
F0.5
ssI51
(dp55
g2
F0.2
sg3
F0.6
sg4
F0.5
ssI52
(dp56
g2
F0.2
sg3
F0.7
sg4
F0.5
ssI53
(dp57
g2
F0.2
sg3
F0.8
sg4
F0.5
ssI54
(dp58
g2
F0.2
sg3
F0.9
sg4
F0.5
ssI55
(dp59
g2
F0.2
sg3
I1
sg4
F0.5
ssI56
(dp60
g2
F0.2
sg3
F0.3
sg4
F0.6
ssI57
(dp61
g2
F0.2
sg3
F0.4
sg4
F0.6
ssI58
(dp62
g2
F0.2
sg3
F0.5
sg4
F0.6
ssI59
(dp63
g2
F0.2
sg3
F0.6
sg4
F0.6
ssI60
(dp64
g2
F0.2
sg3
F0.7
sg4
F0.6
ssI61
(dp65
g2
F0.2
sg3
F0.8
sg4
F0.6
ssI62
(dp66
g2
F0.2
sg3
F0.9
sg4
F0.6
ssI63
(dp67
g2
F0.2
sg3
I1
sg4
F0.6
ssI64
(dp68
g2
F0.2
sg3
F0.3
sg4
F0.7
ssI65
(dp69
g2
F0.2
sg3
F0.4
sg4
F0.7
ssI66
(dp70
g2
F0.2
sg3
F0.5
sg4
F0.7
ssI67
(dp71
g2
F0.2
sg3
F0.6
sg4
F0.7
ssI68
(dp72
g2
F0.2
sg3
F0.7
sg4
F0.7
ssI69
(dp73
g2
F0.2
sg3
F0.8
sg4
F0.7
ssI70
(dp74
g2
F0.2
sg3
F0.9
sg4
F0.7
ssI71
(dp75
g2
F0.2
sg3
I1
sg4
F0.7
ssI72
(dp76
g2
F0.2
sg3
F0.3
sg4
F0.8
ssI73
(dp77
g2
F0.2
sg3
F0.4
sg4
F0.8
ssI74
(dp78
g2
F0.2
sg3
F0.5
sg4
F0.8
ssI75
(dp79
g2
F0.2
sg3
F0.6
sg4
F0.8
ssI76
(dp80
g2
F0.2
sg3
F0.7
sg4
F0.8
ssI77
(dp81
g2
F0.2
sg3
F0.8
sg4
F0.8
ssI78
(dp82
g2
F0.2
sg3
F0.9
sg4
F0.8
ssI79
(dp83
g2
F0.2
sg3
I1
sg4
F0.8
ssI80
(dp84
g2
F0.2
sg3
F0.3
sg4
F0.9
ssI81
(dp85
g2
F0.2
sg3
F0.4
sg4
F0.9
ssI82
(dp86
g2
F0.2
sg3
F0.5
sg4
F0.9
ssI83
(dp87
g2
F0.2
sg3
F0.6
sg4
F0.9
ssI84
(dp88
g2
F0.2
sg3
F0.7
sg4
F0.9
ssI85
(dp89
g2
F0.2
sg3
F0.8
sg4
F0.9
ssI86
(dp90
g2
F0.2
sg3
F0.9
sg4
F0.9
ssI87
(dp91
g2
F0.2
sg3
I1
sg4
F0.9
ssI88
(dp92
g2
F0.2
sg3
F0.3
sg4
I1
ssI89
(dp93
g2
F0.2
sg3
F0.4
sg4
I1
ssI90
(dp94
g2
F0.2
sg3
F0.5
sg4
I1
ssI91
(dp95
g2
F0.2
sg3
F0.6
sg4
I1
ssI92
(dp96
g2
F0.2
sg3
F0.7
sg4
I1
ssI93
(dp97
g2
F0.2
sg3
F0.8
sg4
I1
ssI94
(dp98
g2
F0.2
sg3
F0.9
sg4
I1
ssI95
(dp99
g2
F0.2
sg3
I1
sg4
I1
ssI96
(dp100
g2
F0.1
sg3
F0.3
sg4
F0.5
ssI97
(dp101
g2
F0.1
sg3
F0.4
sg4
F0.5
ssI98
(dp102
g2
F0.1
sg3
F0.5
sg4
F0.5
ssI99
(dp103
g2
F0.1
sg3
F0.6
sg4
F0.5
ssI100
(dp104
g2
F0.1
sg3
F0.7
sg4
F0.5
ssI101
(dp105
g2
F0.1
sg3
F0.8
sg4
F0.5
ssI102
(dp106
g2
F0.1
sg3
F0.9
sg4
F0.5
ssI103
(dp107
g2
F0.1
sg3
I1
sg4
F0.5
ssI104
(dp108
g2
F0.1
sg3
F0.3
sg4
F0.6
ssI105
(dp109
g2
F0.1
sg3
F0.4
sg4
F0.6
ssI106
(dp110
g2
F0.1
sg3
F0.5
sg4
F0.6
ssI107
(dp111
g2
F0.1
sg3
F0.6
sg4
F0.6
ssI108
(dp112
g2
F0.1
sg3
F0.7
sg4
F0.6
ssI109
(dp113
g2
F0.1
sg3
F0.8
sg4
F0.6
ssI110
(dp114
g2
F0.1
sg3
F0.9
sg4
F0.6
ssI111
(dp115
g2
F0.1
sg3
I1
sg4
F0.6
ssI112
(dp116
g2
F0.1
sg3
F0.3
sg4
F0.7
ssI113
(dp117
g2
F0.1
sg3
F0.4
sg4
F0.7
ssI114
(dp118
g2
F0.1
sg3
F0.5
sg4
F0.7
ssI115
(dp119
g2
F0.1
sg3
F0.6
sg4
F0.7
ssI116
(dp120
g2
F0.1
sg3
F0.7
sg4
F0.7
ssI117
(dp121
g2
F0.1
sg3
F0.8
sg4
F0.7
ssI118
(dp122
g2
F0.1
sg3
F0.9
sg4
F0.7
ssI119
(dp123
g2
F0.1
sg3
I1
sg4
F0.7
ssI120
(dp124
g2
F0.1
sg3
F0.3
sg4
F0.8
ssI121
(dp125
g2
F0.1
sg3
F0.4
sg4
F0.8
ssI122
(dp126
g2
F0.1
sg3
F0.5
sg4
F0.8
ssI123
(dp127
g2
F0.1
sg3
F0.6
sg4
F0.8
ssI124
(dp128
g2
F0.1
sg3
F0.7
sg4
F0.8
ssI125
(dp129
g2
F0.1
sg3
F0.8
sg4
F0.8
ssI126
(dp130
g2
F0.1
sg3
F0.9
sg4
F0.8
ssI127
(dp131
g2
F0.1
sg3
I1
sg4
F0.8
ssI128
(dp132
g2
F0.1
sg3
F0.3
sg4
F0.9
ssI129
(dp133
g2
F0.1
sg3
F0.4
sg4
F0.9
ssI130
(dp134
g2
F0.1
sg3
F0.5
sg4
F0.9
ssI131
(dp135
g2
F0.1
sg3
F0.6
sg4
F0.9
ssI132
(dp136
g2
F0.1
sg3
F0.7
sg4
F0.9
ssI133
(dp137
g2
F0.1
sg3
F0.8
sg4
F0.9
ssI134
(dp138
g2
F0.1
sg3
F0.9
sg4
F0.9
ssI135
(dp139
g2
F0.1
sg3
I1
sg4
F0.9
ssI136
(dp140
g2
F0.1
sg3
F0.3
sg4
I1
ssI137
(dp141
g2
F0.1
sg3
F0.4
sg4
I1
ssI138
(dp142
g2
F0.1
sg3
F0.5
sg4
I1
ssI139
(dp143
g2
F0.1
sg3
F0.6
sg4
I1
ssI140
(dp144
g2
F0.1
sg3
F0.7
sg4
I1
ssI141
(dp145
g2
F0.1
sg3
F0.8
sg4
I1
ssI142
(dp146
g2
F0.1
sg3
F0.9
sg4
I1
ssI143
(dp147
g2
F0.1
sg3
I1
sg4
I1
ssI144
(dp148
g2
F0.05
sg3
F0.3
sg4
F0.5
ssI145
(dp149
g2
F0.05
sg3
F0.4
sg4
F0.5
ssI146
(dp150
g2
F0.05
sg3
F0.5
sg4
F0.5
ssI147
(dp151
g2
F0.05
sg3
F0.6
sg4
F0.5
ssI148
(dp152
g2
F0.05
sg3
F0.7
sg4
F0.5
ssI149
(dp153
g2
F0.05
sg3
F0.8
sg4
F0.5
ssI150
(dp154
g2
F0.05
sg3
F0.9
sg4
F0.5
ssI151
(dp155
g2
F0.05
sg3
I1
sg4
F0.5
ssI152
(dp156
g2
F0.05
sg3
F0.3
sg4
F0.6
ssI153
(dp157
g2
F0.05
sg3
F0.4
sg4
F0.6
ssI154
(dp158
g2
F0.05
sg3
F0.5
sg4
F0.6
ssI155
(dp159
g2
F0.05
sg3
F0.6
sg4
F0.6
ssI156
(dp160
g2
F0.05
sg3
F0.7
sg4
F0.6
ssI157
(dp161
g2
F0.05
sg3
F0.8
sg4
F0.6
ssI158
(dp162
g2
F0.05
sg3
F0.9
sg4
F0.6
ssI159
(dp163
g2
F0.05
sg3
I1
sg4
F0.6
ssI160
(dp164
g2
F0.05
sg3
F0.3
sg4
F0.7
ssI161
(dp165
g2
F0.05
sg3
F0.4
sg4
F0.7
ssI162
(dp166
g2
F0.05
sg3
F0.5
sg4
F0.7
ssI163
(dp167
g2
F0.05
sg3
F0.6
sg4
F0.7
ssI164
(dp168
g2
F0.05
sg3
F0.7
sg4
F0.7
ssI165
(dp169
g2
F0.05
sg3
F0.8
sg4
F0.7
ssI166
(dp170
g2
F0.05
sg3
F0.9
sg4
F0.7
ssI167
(dp171
g2
F0.05
sg3
I1
sg4
F0.7
ssI168
(dp172
g2
F0.05
sg3
F0.3
sg4
F0.8
ssI169
(dp173
g2
F0.05
sg3
F0.4
sg4
F0.8
ssI170
(dp174
g2
F0.05
sg3
F0.5
sg4
F0.8
ssI171
(dp175
g2
F0.05
sg3
F0.6
sg4
F0.8
ssI172
(dp176
g2
F0.05
sg3
F0.7
sg4
F0.8
ssI173
(dp177
g2
F0.05
sg3
F0.8
sg4
F0.8
ssI174
(dp178
g2
F0.05
sg3
F0.9
sg4
F0.8
ssI175
(dp179
g2
F0.05
sg3
I1
sg4
F0.8
ssI176
(dp180
g2
F0.05
sg3
F0.3
sg4
F0.9
ssI177
(dp181
g2
F0.05
sg3
F0.4
sg4
F0.9
ssI178
(dp182
g2
F0.05
sg3
F0.5
sg4
F0.9
ssI179
(dp183
g2
F0.05
sg3
F0.6
sg4
F0.9
ssI180
(dp184
g2
F0.05
sg3
F0.7
sg4
F0.9
ssI181
(dp185
g2
F0.05
sg3
F0.8
sg4
F0.9
ssI182
(dp186
g2
F0.05
sg3
F0.9
sg4
F0.9
ssI183
(dp187
g2
F0.05
sg3
I1
sg4
F0.9
ssI184
(dp188
g2
F0.05
sg3
F0.3
sg4
I1
ssI185
(dp189
g2
F0.05
sg3
F0.4
sg4
I1
ssI186
(dp190
g2
F0.05
sg3
F0.5
sg4
I1
ssI187
(dp191
g2
F0.05
sg3
F0.6
sg4
I1
ssI188
(dp192
g2
F0.05
sg3
F0.7
sg4
I1
ssI189
(dp193
g2
F0.05
sg3
F0.8
sg4
I1
ssI190
(dp194
g2
F0.05
sg3
F0.9
sg4
I1
ssI191
(dp195
g2
F0.05
sg3
I1
sg4
I1
ssI192
(dp196
g2
F0.01
sg3
F0.3
sg4
F0.5
ssI193
(dp197
g2
F0.01
sg3
F0.4
sg4
F0.5
ssI194
(dp198
g2
F0.01
sg3
F0.5
sg4
F0.5
ssI195
(dp199
g2
F0.01
sg3
F0.6
sg4
F0.5
ssI196
(dp200
g2
F0.01
sg3
F0.7
sg4
F0.5
ssI197
(dp201
g2
F0.01
sg3
F0.8
sg4
F0.5
ssI198
(dp202
g2
F0.01
sg3
F0.9
sg4
F0.5
ssI199
(dp203
g2
F0.01
sg3
I1
sg4
F0.5
ssI200
(dp204
g2
F0.01
sg3
F0.3
sg4
F0.6
ssI201
(dp205
g2
F0.01
sg3
F0.4
sg4
F0.6
ssI202
(dp206
g2
F0.01
sg3
F0.5
sg4
F0.6
ssI203
(dp207
g2
F0.01
sg3
F0.6
sg4
F0.6
ssI204
(dp208
g2
F0.01
sg3
F0.7
sg4
F0.6
ssI205
(dp209
g2
F0.01
sg3
F0.8
sg4
F0.6
ssI206
(dp210
g2
F0.01
sg3
F0.9
sg4
F0.6
ssI207
(dp211
g2
F0.01
sg3
I1
sg4
F0.6
ssI208
(dp212
g2
F0.01
sg3
F0.3
sg4
F0.7
ssI209
(dp213
g2
F0.01
sg3
F0.4
sg4
F0.7
ssI210
(dp214
g2
F0.01
sg3
F0.5
sg4
F0.7
ssI211
(dp215
g2
F0.01
sg3
F0.6
sg4
F0.7
ssI212
(dp216
g2
F0.01
sg3
F0.7
sg4
F0.7
ssI213
(dp217
g2
F0.01
sg3
F0.8
sg4
F0.7
ssI214
(dp218
g2
F0.01
sg3
F0.9
sg4
F0.7
ssI215
(dp219
g2
F0.01
sg3
I1
sg4
F0.7
ssI216
(dp220
g2
F0.01
sg3
F0.3
sg4
F0.8
ssI217
(dp221
g2
F0.01
sg3
F0.4
sg4
F0.8
ssI218
(dp222
g2
F0.01
sg3
F0.5
sg4
F0.8
ssI219
(dp223
g2
F0.01
sg3
F0.6
sg4
F0.8
ssI220
(dp224
g2
F0.01
sg3
F0.7
sg4
F0.8
ssI221
(dp225
g2
F0.01
sg3
F0.8
sg4
F0.8
ssI222
(dp226
g2
F0.01
sg3
F0.9
sg4
F0.8
ssI223
(dp227
g2
F0.01
sg3
I1
sg4
F0.8
ssI224
(dp228
g2
F0.01
sg3
F0.3
sg4
F0.9
ssI225
(dp229
g2
F0.01
sg3
F0.4
sg4
F0.9
ssI226
(dp230
g2
F0.01
sg3
F0.5
sg4
F0.9
ssI227
(dp231
g2
F0.01
sg3
F0.6
sg4
F0.9
ssI228
(dp232
g2
F0.01
sg3
F0.7
sg4
F0.9
ssI229
(dp233
g2
F0.01
sg3
F0.8
sg4
F0.9
ssI230
(dp234
g2
F0.01
sg3
F0.9
sg4
F0.9
ssI231
(dp235
g2
F0.01
sg3
I1
sg4
F0.9
ssI232
(dp236
g2
F0.01
sg3
F0.3
sg4
I1
ssI233
(dp237
g2
F0.01
sg3
F0.4
sg4
I1
ssI234
(dp238
g2
F0.01
sg3
F0.5
sg4
I1
ssI235
(dp239
g2
F0.01
sg3
F0.6
sg4
I1
ssI236
(dp240
g2
F0.01
sg3
F0.7
sg4
I1
ssI237
(dp241
g2
F0.01
sg3
F0.8
sg4
I1
ssI238
(dp242
g2
F0.01
sg3
F0.9
sg4
I1
ssI239
(dp243
g2
F0.01
sg3
I1
sg4
I1
ss.